; Function Attrs: mustprogress uwtable
define hidden void @_ZN19OpenColorIO_v2_5dev36build_conversion_matrix_from_XYZ_D65ERKNS_9PrimariesENS_16AdaptationMethodE(ptr dead_on_unwind noalias writable sret(%"class.std::shared_ptr") align 8 %0, ptr noundef nonnull readonly align 8 captures(none) dereferenceable(64) %1, i32 noundef %2) local_unnamed_addr #4 personality ptr @__gxx_personality_v0 {
  %4 = load atomic i8, ptr @_ZGVZN19OpenColorIO_v2_5dev36build_conversion_matrix_from_XYZ_D65ERKNS_9PrimariesENS_16AdaptationMethodEE4zero acquire, align 8
  %5 = icmp eq i8 %4, 0
  br i1 %5, label %6, label %11, !prof !39

6:                                                ; preds = %3
  %7 = tail call i32 @__cxa_guard_acquire(ptr nonnull @_ZGVZN19OpenColorIO_v2_5dev36build_conversion_matrix_from_XYZ_D65ERKNS_9PrimariesENS_16AdaptationMethodEE4zero) #14
  %.not = icmp eq i32 %7, 0
  br i1 %.not, label %11, label %8

8:                                                ; preds = %6
  invoke void @_ZN19OpenColorIO_v2_5dev12MatrixOpData7OffsetsC1Edddd(ptr noundef nonnull align 8 dereferenceable(32) @_ZZN19OpenColorIO_v2_5dev36build_conversion_matrix_from_XYZ_D65ERKNS_9PrimariesENS_16AdaptationMethodEE4zero, double noundef 0.000000e+00, double noundef 0.000000e+00, double noundef 0.000000e+00, double noundef 0.000000e+00)
          to label %9 unwind label %12

9:                                                ; preds = %8
  %10 = tail call ptr @llvm.invariant.start.p0(i64 32, ptr nonnull @_ZZN19OpenColorIO_v2_5dev36build_conversion_matrix_from_XYZ_D65ERKNS_9PrimariesENS_16AdaptationMethodEE4zero)
  tail call void @__cxa_guard_release(ptr nonnull @_ZGVZN19OpenColorIO_v2_5dev36build_conversion_matrix_from_XYZ_D65ERKNS_9PrimariesENS_16AdaptationMethodEE4zero) #14
  br label %11

11:                                               ; preds = %9, %6, %3
  tail call void @_ZN19OpenColorIO_v2_5dev23build_conversion_matrixERKNS_9PrimariesES2_RKNS_12MatrixOpData7OffsetsES6_NS_16AdaptationMethodE(ptr dead_on_unwind writable sret(%"class.std::shared_ptr") align 8 %0, ptr noundef nonnull align 8 dereferenceable(64) @_ZN19OpenColorIO_v2_5dev15CIE_XYZ_ILLUM_E9primariesE, ptr noundef nonnull align 8 dereferenceable(64) %1, ptr noundef nonnull align 8 dereferenceable(32) @_ZN19OpenColorIO_v2_5dev10WHITEPOINT7D65_XYZE, ptr noundef nonnull align 8 dereferenceable(32) @_ZZN19OpenColorIO_v2_5dev36build_conversion_matrix_from_XYZ_D65ERKNS_9PrimariesENS_16AdaptationMethodEE4zero, i32 noundef %2)
  ret void

12:                                               ; preds = %8
  %13 = landingpad { ptr, i32 }
          cleanup
  tail call void @__cxa_guard_abort(ptr nonnull @_ZGVZN19OpenColorIO_v2_5dev36build_conversion_matrix_from_XYZ_D65ERKNS_9PrimariesENS_16AdaptationMethodEE4zero) #14
  resume { ptr, i32 } %13
}